target datalayout = "e-m:e-p270:32:32-p271:32:32-p272:64:64-i64:64-i128:128-f80:128-n8:16:32:64-S128"
target triple = "x86_64-pc-linux-gnu"

%"struct.faiss::VectorTransform" = type <{ ptr, i32, i32, i8, [7 x i8] }>

; Function Attrs: mustprogress nounwind uwtable
define void @_ZNK5faiss22NormalizationTransform17reverse_transformElPKfPf(ptr noundef nonnull align 8 dereferenceable(24) %0, i64 noundef %1, ptr noundef %2, ptr noundef %3) unnamed_addr #0 align 2 {
  %5 = alloca ptr, align 8
  %6 = alloca i64, align 8
  %7 = alloca ptr, align 8
  %8 = alloca ptr, align 8
  store ptr %0, ptr %5, align 8, !tbaa !131
  store i64 %1, ptr %6, align 8, !tbaa !9
  store ptr %2, ptr %7, align 8, !tbaa !11
  store ptr %3, ptr %8, align 8, !tbaa !11
  %9 = load ptr, ptr %5, align 8
  %10 = load ptr, ptr %8, align 8, !tbaa !11
  %11 = load ptr, ptr %7, align 8, !tbaa !11
  %12 = load i64, ptr %6, align 8, !tbaa !9
  %13 = mul i64 4, %12
  %14 = getelementptr inbounds nuw %"struct.faiss::VectorTransform", ptr %9, i32 0, i32 1
  %15 = load i32, ptr %14, align 8, !tbaa !34
  %16 = sext i32 %15 to i64
  %17 = mul i64 %13, %16
  call void @llvm.memcpy.p0.p0.i64(ptr align 4 %10, ptr align 4 %11, i64 %17, i1 false)
  ret void
}