; Function Attrs: mustprogress nofree norecurse nosync nounwind willreturn memory(argmem: readwrite) uwtable
define void @_ZNK5faiss22NormalizationTransform17reverse_transformElPKfPf(ptr noundef nonnull readonly align 8 captures(none) dereferenceable(24) %0, i64 noundef %1, ptr noundef readonly captures(none) %2, ptr noundef writeonly captures(none) %3) unnamed_addr #6 align 2 {
  %5 = shl i64 %1, 2
  %6 = getelementptr inbounds nuw i8, ptr %0, i64 8
  %7 = load i32, ptr %6, align 8, !tbaa !37
  %8 = sext i32 %7 to i64
  %9 = mul i64 %5, %8
  tail call void @llvm.memcpy.p0.p0.i64(ptr align 4 %3, ptr align 4 %2, i64 %9, i1 false)
  ret void
}